0000000000401b3d <start_farm>:
  401b3d:	b8 01 00 00 00       	mov    $0x1,%eax
  401b42:	c3                   	retq   

0000000000401b43 <addval_301>:
  401b43:	8d 87 48 89 c7 c7    	lea    -0x383876b8(%rdi),%eax
  401b49:	c3                   	retq   

0000000000401b4a <addval_269>:
  401b4a:	8d 87 48 89 c7 90    	lea    -0x6f3876b8(%rdi),%eax
  401b50:	c3                   	retq   

0000000000401b51 <setval_250>:
  401b51:	c7 07 09 78 c3 39    	movl   $0x39c37809,(%rdi)
  401b57:	c3                   	retq   

0000000000401b58 <getval_391>:
  401b58:	b8 48 89 c7 c3       	mov    $0xc3c78948,%eax
  401b5d:	c3                   	retq   

0000000000401b5e <addval_223>:
  401b5e:	8d 87 82 46 d8 c3    	lea    -0x3c27b97e(%rdi),%eax
  401b64:	c3                   	retq   

0000000000401b65 <addval_270>:
  401b65:	8d 87 4c 89 c7 90    	lea    -0x6f3876b4(%rdi),%eax
  401b6b:	c3                   	retq   

0000000000401b6c <getval_178>:
  401b6c:	b8 c8 3a 58 c3       	mov    $0xc3583ac8,%eax
  401b71:	c3                   	retq   

0000000000401b72 <setval_370>:
  401b72:	c7 07 58 90 90 c3    	movl   $0xc3909058,(%rdi)
  401b78:	c3                   	retq   

0000000000401b79 <mid_farm>:
  401b79:	b8 01 00 00 00       	mov    $0x1,%eax
  401b7e:	c3                   	retq   

0000000000401b7f <add_xy>:
  401b7f:	48 8d 04 37          	lea    (%rdi,%rsi,1),%rax
  401b83:	c3                   	retq   

0000000000401b84 <getval_420>:
  401b84:	b8 89 ca 90 90       	mov    $0x9090ca89,%eax
  401b89:	c3                   	retq   

0000000000401b8a <getval_326>:
  401b8a:	b8 c8 89 e0 90       	mov    $0x90e089c8,%eax
  401b8f:	c3                   	retq   

0000000000401b90 <getval_164>:
  401b90:	b8 c9 ca 90 90       	mov    $0x9090cac9,%eax
  401b95:	c3                   	retq   

0000000000401b96 <setval_328>:
  401b96:	c7 07 88 c1 38 db    	movl   $0xdb38c188,(%rdi)
  401b9c:	c3                   	retq   

0000000000401b9d <addval_480>:
  401b9d:	8d 87 89 d6 c4 c0    	lea    -0x3f3b2977(%rdi),%eax
  401ba3:	c3                   	retq   

0000000000401ba4 <getval_147>:
  401ba4:	b8 a9 ca 08 d2       	mov    $0xd208caa9,%eax
  401ba9:	c3                   	retq   

0000000000401baa <addval_373>:
  401baa:	8d 87 89 c1 08 db    	lea    -0x24f73e77(%rdi),%eax
  401bb0:	c3                   	retq   

0000000000401bb1 <getval_385>:
  401bb1:	b8 bd 48 89 e0       	mov    $0xe08948bd,%eax
  401bb6:	c3                   	retq   

0000000000401bb7 <getval_387>:
  401bb7:	b8 89 ca 28 d2       	mov    $0xd228ca89,%eax
  401bbc:	c3                   	retq   

0000000000401bbd <addval_137>:
  401bbd:	8d 87 81 c1 38 db    	lea    -0x24c73e7f(%rdi),%eax
  401bc3:	c3                   	retq   

0000000000401bc4 <getval_129>:
  401bc4:	b8 89 d6 90 c3       	mov    $0xc390d689,%eax
  401bc9:	c3                   	retq   

0000000000401bca <setval_358>:
  401bca:	c7 07 8d ca c3 aa    	movl   $0xaac3ca8d,(%rdi)
  401bd0:	c3                   	retq   

0000000000401bd1 <addval_368>:
  401bd1:	8d 87 89 c1 84 c0    	lea    -0x3f7b3e77(%rdi),%eax
  401bd7:	c3                   	retq   

0000000000401bd8 <getval_455>:
  401bd8:	b8 48 89 e0 c2       	mov    $0xc2e08948,%eax
  401bdd:	c3                   	retq   

0000000000401bde <setval_462>:
  401bde:	c7 07 89 d6 94 c0    	movl   $0xc094d689,(%rdi)
  401be4:	c3                   	retq   

0000000000401be5 <setval_205>:
  401be5:	c7 07 48 88 e0 c3    	movl   $0xc3e08848,(%rdi)
  401beb:	c3                   	retq   

0000000000401bec <setval_288>:
  401bec:	c7 07 48 89 e0 c3    	movl   $0xc3e08948,(%rdi)
  401bf2:	c3                   	retq   

0000000000401bf3 <addval_496>:
  401bf3:	8d 87 49 89 e0 90    	lea    -0x6f1f76b7(%rdi),%eax
  401bf9:	c3                   	retq   

0000000000401bfa <getval_393>:
  401bfa:	b8 a9 d6 08 db       	mov    $0xdb08d6a9,%eax
  401bff:	c3                   	retq   

0000000000401c00 <getval_479>:
  401c00:	b8 89 d6 90 c3       	mov    $0xc390d689,%eax
  401c05:	c3                   	retq   

0000000000401c06 <setval_187>:
  401c06:	c7 07 89 ca 84 d2    	movl   $0xd284ca89,(%rdi)
  401c0c:	c3                   	retq   

0000000000401c0d <getval_421>:
  401c0d:	b8 89 d6 00 d2       	mov    $0xd200d689,%eax
  401c12:	c3                   	retq   

0000000000401c13 <getval_335>:
  401c13:	b8 48 89 e0 92       	mov    $0x92e08948,%eax
  401c18:	c3                   	retq   

0000000000401c19 <setval_478>:
  401c19:	c7 07 89 c1 78 db    	movl   $0xdb78c189,(%rdi)
  401c1f:	c3                   	retq   

0000000000401c20 <setval_103>:
  401c20:	c7 07 6e 89 c1 c2    	movl   $0xc2c1896e,(%rdi)
  401c26:	c3                   	retq   

0000000000401c27 <addval_189>:
  401c27:	8d 87 48 88 e0 90    	lea    -0x6f1f77b8(%rdi),%eax
  401c2d:	c3                   	retq   

0000000000401c2e <addval_414>:
  401c2e:	8d 87 09 d6 90 c3    	lea    -0x3c6f29f7(%rdi),%eax
  401c34:	c3                   	retq   

0000000000401c35 <addval_417>:
  401c35:	8d 87 89 c1 94 90    	lea    -0x6f6b3e77(%rdi),%eax
  401c3b:	c3                   	retq   

0000000000401c3c <addval_451>:
  401c3c:	8d 87 89 ca 18 c0    	lea    -0x3fe73577(%rdi),%eax
  401c42:	c3                   	retq   

0000000000401c43 <setval_197>:
  401c43:	c7 07 89 c1 60 c0    	movl   $0xc060c189,(%rdi)
  401c49:	c3                   	retq   

0000000000401c4a <setval_255>:
  401c4a:	c7 07 a9 d6 08 c0    	movl   $0xc008d6a9,(%rdi)
  401c50:	c3                   	retq   

0000000000401c51 <setval_468>:
  401c51:	c7 07 09 ca 20 db    	movl   $0xdb20ca09,(%rdi)
  401c57:	c3                   	retq   

0000000000401c58 <end_farm>:
  401c58:	b8 01 00 00 00       	mov    $0x1,%eax
  401c5d:	c3                   	retq   
